target datalayout = "e-m:e-p270:32:32-p271:32:32-p272:64:64-i64:64-i128:128-f80:128-n8:16:32:64-S128"
target triple = "x86_64-pc-linux-gnu"

%struct._dumpOptions = type { %struct._connParams, i32, i32, i8, ptr, i32, i32, i32, i32, i32, i32, i32, i32, i32, i32, i32, i32, i32, i32, i32, i32, i32, i8, i32, i32, i8, i8, i32, ptr, i32, i32, i8, i8 }
%struct._connParams = type { ptr, ptr, ptr, ptr, i32, ptr }
%struct.SimpleOidList = type { ptr, ptr }
%struct.CatalogId = type { i32, i32 }
%struct.Archive = type { ptr, ptr, i32, ptr, i32, i8, i32, i32, i32, ptr, i32, i8, ptr, ptr, i8, i32, ptr }
%struct._dumpableObject = type { i32, %struct.CatalogId, i32, ptr, ptr, i32, i32, i32, i8, i8, ptr, i32, i32 }
%struct.PQExpBufferData = type { ptr, i64, i64 }
%struct._extensionInfo = type { %struct._dumpableObject, ptr, i8, ptr, ptr, ptr }

@g_last_builtin_oid = internal global i32 0, align 4
@extension_include_oids = internal global %struct.SimpleOidList zeroinitializer, align 8
@extension_exclude_oids = internal global %struct.SimpleOidList zeroinitializer, align 8
@.str.106 = private unnamed_addr constant [4 x i8] c"oid\00", align 1
@.str.107 = private unnamed_addr constant [9 x i8] c"tableoid\00", align 1
@.str.187 = private unnamed_addr constant [8 x i8] c"nspname\00", align 1
@.str.194 = private unnamed_addr constant [174 x i8] c"SELECT x.tableoid, x.oid, x.extname, n.nspname, x.extrelocatable, x.extversion, x.extconfig, x.extcondition FROM pg_extension x JOIN pg_namespace n ON n.oid = x.extnamespace\00", align 1
@.str.195 = private unnamed_addr constant [8 x i8] c"extname\00", align 1
@.str.196 = private unnamed_addr constant [15 x i8] c"extrelocatable\00", align 1
@.str.197 = private unnamed_addr constant [11 x i8] c"extversion\00", align 1
@.str.198 = private unnamed_addr constant [10 x i8] c"extconfig\00", align 1
@.str.199 = private unnamed_addr constant [13 x i8] c"extcondition\00", align 1

; Function Attrs: nounwind uwtable
define internal void @selectDumpableExtension(ptr noundef %0, ptr noundef %1) #0 {
  %3 = alloca ptr, align 8
  %4 = alloca ptr, align 8
  store ptr %0, ptr %3, align 8
  store ptr %1, ptr %4, align 8
  %5 = load ptr, ptr %3, align 8
  %6 = getelementptr inbounds nuw %struct._extensionInfo, ptr %5, i32 0, i32 0
  %7 = getelementptr inbounds nuw %struct._dumpableObject, ptr %6, i32 0, i32 1
  %8 = getelementptr inbounds nuw %struct.CatalogId, ptr %7, i32 0, i32 1
  %9 = load i32, ptr %8, align 4
  %10 = load i32, ptr @g_last_builtin_oid, align 4
  %11 = icmp ule i32 %9, %10
  br i1 %11, label %12, label %19

12:                                               ; preds = %2
  %13 = load ptr, ptr %3, align 8
  %14 = getelementptr inbounds nuw %struct._extensionInfo, ptr %13, i32 0, i32 0
  %15 = getelementptr inbounds nuw %struct._dumpableObject, ptr %14, i32 0, i32 6
  store i32 16, ptr %15, align 4
  %16 = load ptr, ptr %3, align 8
  %17 = getelementptr inbounds nuw %struct._extensionInfo, ptr %16, i32 0, i32 0
  %18 = getelementptr inbounds nuw %struct._dumpableObject, ptr %17, i32 0, i32 5
  store i32 16, ptr %18, align 8
  br label %69

19:                                               ; preds = %2
  %20 = load ptr, ptr @extension_include_oids, align 8
  %21 = icmp ne ptr %20, null
  br i1 %21, label %22, label %36

22:                                               ; preds = %19
  %23 = load ptr, ptr %3, align 8
  %24 = getelementptr inbounds nuw %struct._extensionInfo, ptr %23, i32 0, i32 0
  %25 = getelementptr inbounds nuw %struct._dumpableObject, ptr %24, i32 0, i32 1
  %26 = getelementptr inbounds nuw %struct.CatalogId, ptr %25, i32 0, i32 1
  %27 = load i32, ptr %26, align 4
  %28 = call zeroext i1 @simple_oid_list_member(ptr noundef @extension_include_oids, i32 noundef %27)
  %29 = select i1 %28, i32 65535, i32 0
  %30 = load ptr, ptr %3, align 8
  %31 = getelementptr inbounds nuw %struct._extensionInfo, ptr %30, i32 0, i32 0
  %32 = getelementptr inbounds nuw %struct._dumpableObject, ptr %31, i32 0, i32 6
  store i32 %29, ptr %32, align 4
  %33 = load ptr, ptr %3, align 8
  %34 = getelementptr inbounds nuw %struct._extensionInfo, ptr %33, i32 0, i32 0
  %35 = getelementptr inbounds nuw %struct._dumpableObject, ptr %34, i32 0, i32 5
  store i32 %29, ptr %35, align 8
  br label %48

36:                                               ; preds = %19
  %37 = load ptr, ptr %4, align 8
  %38 = getelementptr inbounds nuw %struct._dumpOptions, ptr %37, i32 0, i32 22
  %39 = load i8, ptr %38, align 4, !range !6, !noundef !7
  %40 = trunc i8 %39 to i1
  %41 = select i1 %40, i32 65535, i32 0
  %42 = load ptr, ptr %3, align 8
  %43 = getelementptr inbounds nuw %struct._extensionInfo, ptr %42, i32 0, i32 0
  %44 = getelementptr inbounds nuw %struct._dumpableObject, ptr %43, i32 0, i32 6
  store i32 %41, ptr %44, align 4
  %45 = load ptr, ptr %3, align 8
  %46 = getelementptr inbounds nuw %struct._extensionInfo, ptr %45, i32 0, i32 0
  %47 = getelementptr inbounds nuw %struct._dumpableObject, ptr %46, i32 0, i32 5
  store i32 %41, ptr %47, align 8
  br label %48

48:                                               ; preds = %36, %22
  %49 = load ptr, ptr %3, align 8
  %50 = getelementptr inbounds nuw %struct._extensionInfo, ptr %49, i32 0, i32 0
  %51 = getelementptr inbounds nuw %struct._dumpableObject, ptr %50, i32 0, i32 5
  %52 = load i32, ptr %51, align 8
  %53 = icmp ne i32 %52, 0
  br i1 %53, label %54, label %68

54:                                               ; preds = %48
  %55 = load ptr, ptr %3, align 8
  %56 = getelementptr inbounds nuw %struct._extensionInfo, ptr %55, i32 0, i32 0
  %57 = getelementptr inbounds nuw %struct._dumpableObject, ptr %56, i32 0, i32 1
  %58 = getelementptr inbounds nuw %struct.CatalogId, ptr %57, i32 0, i32 1
  %59 = load i32, ptr %58, align 4
  %60 = call zeroext i1 @simple_oid_list_member(ptr noundef @extension_exclude_oids, i32 noundef %59)
  br i1 %60, label %61, label %68

61:                                               ; preds = %54
  %62 = load ptr, ptr %3, align 8
  %63 = getelementptr inbounds nuw %struct._extensionInfo, ptr %62, i32 0, i32 0
  %64 = getelementptr inbounds nuw %struct._dumpableObject, ptr %63, i32 0, i32 6
  store i32 0, ptr %64, align 4
  %65 = load ptr, ptr %3, align 8
  %66 = getelementptr inbounds nuw %struct._extensionInfo, ptr %65, i32 0, i32 0
  %67 = getelementptr inbounds nuw %struct._dumpableObject, ptr %66, i32 0, i32 5
  store i32 0, ptr %67, align 8
  br label %68

68:                                               ; preds = %61, %54, %48
  br label %69

69:                                               ; preds = %68, %12
  ret void
}

; Function Attrs: nounwind uwtable
define dso_local ptr @getExtensions(ptr noundef %0, ptr noundef %1) #0 {
  %3 = alloca ptr, align 8
  %4 = alloca ptr, align 8
  %5 = alloca ptr, align 8
  %6 = alloca ptr, align 8
  %7 = alloca i32, align 4
  %8 = alloca i32, align 4
  %9 = alloca ptr, align 8
  %10 = alloca ptr, align 8
  %11 = alloca i32, align 4
  %12 = alloca i32, align 4
  %13 = alloca i32, align 4
  %14 = alloca i32, align 4
  %15 = alloca i32, align 4
  %16 = alloca i32, align 4
  %17 = alloca i32, align 4
  %18 = alloca i32, align 4
  store ptr %0, ptr %3, align 8
  store ptr %1, ptr %4, align 8
  call void @llvm.lifetime.start.p0(i64 8, ptr %5) #10
  %19 = load ptr, ptr %3, align 8
  %20 = getelementptr inbounds nuw %struct.Archive, ptr %19, i32 0, i32 0
  %21 = load ptr, ptr %20, align 8
  store ptr %21, ptr %5, align 8
  call void @llvm.lifetime.start.p0(i64 8, ptr %6) #10
  call void @llvm.lifetime.start.p0(i64 4, ptr %7) #10
  call void @llvm.lifetime.start.p0(i64 4, ptr %8) #10
  call void @llvm.lifetime.start.p0(i64 8, ptr %9) #10
  call void @llvm.lifetime.start.p0(i64 8, ptr %10) #10
  store ptr null, ptr %10, align 8
  call void @llvm.lifetime.start.p0(i64 4, ptr %11) #10
  call void @llvm.lifetime.start.p0(i64 4, ptr %12) #10
  call void @llvm.lifetime.start.p0(i64 4, ptr %13) #10
  call void @llvm.lifetime.start.p0(i64 4, ptr %14) #10
  call void @llvm.lifetime.start.p0(i64 4, ptr %15) #10
  call void @llvm.lifetime.start.p0(i64 4, ptr %16) #10
  call void @llvm.lifetime.start.p0(i64 4, ptr %17) #10
  call void @llvm.lifetime.start.p0(i64 4, ptr %18) #10
  %22 = call ptr @createPQExpBuffer()
  store ptr %22, ptr %9, align 8
  %23 = load ptr, ptr %9, align 8
  call void @appendPQExpBufferStr(ptr noundef %23, ptr noundef @.str.194)
  %24 = load ptr, ptr %3, align 8
  %25 = load ptr, ptr %9, align 8
  %26 = getelementptr inbounds nuw %struct.PQExpBufferData, ptr %25, i32 0, i32 0
  %27 = load ptr, ptr %26, align 8
  %28 = call ptr @ExecuteSqlQuery(ptr noundef %24, ptr noundef %27, i32 noundef 2)
  store ptr %28, ptr %6, align 8
  %29 = load ptr, ptr %6, align 8
  %30 = call i32 @PQntuples(ptr noundef %29)
  store i32 %30, ptr %7, align 4
  %31 = load i32, ptr %7, align 4
  %32 = icmp eq i32 %31, 0
  br i1 %32, label %33, label %34

33:                                               ; preds = %2
  br label %170

34:                                               ; preds = %2
  %35 = load i32, ptr %7, align 4
  %36 = sext i32 %35 to i64
  %37 = mul i64 %36, 104
  %38 = call ptr @pg_malloc(i64 noundef %37)
  store ptr %38, ptr %10, align 8
  %39 = load ptr, ptr %6, align 8
  %40 = call i32 @PQfnumber(ptr noundef %39, ptr noundef @.str.107)
  store i32 %40, ptr %11, align 4
  %41 = load ptr, ptr %6, align 8
  %42 = call i32 @PQfnumber(ptr noundef %41, ptr noundef @.str.106)
  store i32 %42, ptr %12, align 4
  %43 = load ptr, ptr %6, align 8
  %44 = call i32 @PQfnumber(ptr noundef %43, ptr noundef @.str.195)
  store i32 %44, ptr %13, align 4
  %45 = load ptr, ptr %6, align 8
  %46 = call i32 @PQfnumber(ptr noundef %45, ptr noundef @.str.187)
  store i32 %46, ptr %14, align 4
  %47 = load ptr, ptr %6, align 8
  %48 = call i32 @PQfnumber(ptr noundef %47, ptr noundef @.str.196)
  store i32 %48, ptr %15, align 4
  %49 = load ptr, ptr %6, align 8
  %50 = call i32 @PQfnumber(ptr noundef %49, ptr noundef @.str.197)
  store i32 %50, ptr %16, align 4
  %51 = load ptr, ptr %6, align 8
  %52 = call i32 @PQfnumber(ptr noundef %51, ptr noundef @.str.198)
  store i32 %52, ptr %17, align 4
  %53 = load ptr, ptr %6, align 8
  %54 = call i32 @PQfnumber(ptr noundef %53, ptr noundef @.str.199)
  store i32 %54, ptr %18, align 4
  store i32 0, ptr %8, align 4
  br label %55

55:                                               ; preds = %166, %34
  %56 = load i32, ptr %8, align 4
  %57 = load i32, ptr %7, align 4
  %58 = icmp slt i32 %56, %57
  br i1 %58, label %59, label %169

59:                                               ; preds = %55
  %60 = load ptr, ptr %10, align 8
  %61 = load i32, ptr %8, align 4
  %62 = sext i32 %61 to i64
  %63 = getelementptr inbounds %struct._extensionInfo, ptr %60, i64 %62
  %64 = getelementptr inbounds nuw %struct._extensionInfo, ptr %63, i32 0, i32 0
  %65 = getelementptr inbounds nuw %struct._dumpableObject, ptr %64, i32 0, i32 0
  store i32 1, ptr %65, align 8
  %66 = load ptr, ptr %6, align 8
  %67 = load i32, ptr %8, align 4
  %68 = load i32, ptr %11, align 4
  %69 = call ptr @PQgetvalue(ptr noundef %66, i32 noundef %67, i32 noundef %68)
  %70 = call i64 @strtoul(ptr noundef %69, ptr noundef null, i32 noundef 10) #10
  %71 = trunc i64 %70 to i32
  %72 = load ptr, ptr %10, align 8
  %73 = load i32, ptr %8, align 4
  %74 = sext i32 %73 to i64
  %75 = getelementptr inbounds %struct._extensionInfo, ptr %72, i64 %74
  %76 = getelementptr inbounds nuw %struct._extensionInfo, ptr %75, i32 0, i32 0
  %77 = getelementptr inbounds nuw %struct._dumpableObject, ptr %76, i32 0, i32 1
  %78 = getelementptr inbounds nuw %struct.CatalogId, ptr %77, i32 0, i32 0
  store i32 %71, ptr %78, align 4
  %79 = load ptr, ptr %6, align 8
  %80 = load i32, ptr %8, align 4
  %81 = load i32, ptr %12, align 4
  %82 = call ptr @PQgetvalue(ptr noundef %79, i32 noundef %80, i32 noundef %81)
  %83 = call i64 @strtoul(ptr noundef %82, ptr noundef null, i32 noundef 10) #10
  %84 = trunc i64 %83 to i32
  %85 = load ptr, ptr %10, align 8
  %86 = load i32, ptr %8, align 4
  %87 = sext i32 %86 to i64
  %88 = getelementptr inbounds %struct._extensionInfo, ptr %85, i64 %87
  %89 = getelementptr inbounds nuw %struct._extensionInfo, ptr %88, i32 0, i32 0
  %90 = getelementptr inbounds nuw %struct._dumpableObject, ptr %89, i32 0, i32 1
  %91 = getelementptr inbounds nuw %struct.CatalogId, ptr %90, i32 0, i32 1
  store i32 %84, ptr %91, align 4
  %92 = load ptr, ptr %10, align 8
  %93 = load i32, ptr %8, align 4
  %94 = sext i32 %93 to i64
  %95 = getelementptr inbounds %struct._extensionInfo, ptr %92, i64 %94
  %96 = getelementptr inbounds nuw %struct._extensionInfo, ptr %95, i32 0, i32 0
  call void @AssignDumpId(ptr noundef %96)
  %97 = load ptr, ptr %6, align 8
  %98 = load i32, ptr %8, align 4
  %99 = load i32, ptr %13, align 4
  %100 = call ptr @PQgetvalue(ptr noundef %97, i32 noundef %98, i32 noundef %99)
  %101 = call ptr @pg_strdup(ptr noundef %100)
  %102 = load ptr, ptr %10, align 8
  %103 = load i32, ptr %8, align 4
  %104 = sext i32 %103 to i64
  %105 = getelementptr inbounds %struct._extensionInfo, ptr %102, i64 %104
  %106 = getelementptr inbounds nuw %struct._extensionInfo, ptr %105, i32 0, i32 0
  %107 = getelementptr inbounds nuw %struct._dumpableObject, ptr %106, i32 0, i32 3
  store ptr %101, ptr %107, align 8
  %108 = load ptr, ptr %6, align 8
  %109 = load i32, ptr %8, align 4
  %110 = load i32, ptr %14, align 4
  %111 = call ptr @PQgetvalue(ptr noundef %108, i32 noundef %109, i32 noundef %110)
  %112 = call ptr @pg_strdup(ptr noundef %111)
  %113 = load ptr, ptr %10, align 8
  %114 = load i32, ptr %8, align 4
  %115 = sext i32 %114 to i64
  %116 = getelementptr inbounds %struct._extensionInfo, ptr %113, i64 %115
  %117 = getelementptr inbounds nuw %struct._extensionInfo, ptr %116, i32 0, i32 1
  store ptr %112, ptr %117, align 8
  %118 = load ptr, ptr %6, align 8
  %119 = load i32, ptr %8, align 4
  %120 = load i32, ptr %15, align 4
  %121 = call ptr @PQgetvalue(ptr noundef %118, i32 noundef %119, i32 noundef %120)
  %122 = load i8, ptr %121, align 1
  %123 = sext i8 %122 to i32
  %124 = icmp eq i32 %123, 116
  %125 = load ptr, ptr %10, align 8
  %126 = load i32, ptr %8, align 4
  %127 = sext i32 %126 to i64
  %128 = getelementptr inbounds %struct._extensionInfo, ptr %125, i64 %127
  %129 = getelementptr inbounds nuw %struct._extensionInfo, ptr %128, i32 0, i32 2
  %130 = zext i1 %124 to i8
  store i8 %130, ptr %129, align 8
  %131 = load ptr, ptr %6, align 8
  %132 = load i32, ptr %8, align 4
  %133 = load i32, ptr %16, align 4
  %134 = call ptr @PQgetvalue(ptr noundef %131, i32 noundef %132, i32 noundef %133)
  %135 = call ptr @pg_strdup(ptr noundef %134)
  %136 = load ptr, ptr %10, align 8
  %137 = load i32, ptr %8, align 4
  %138 = sext i32 %137 to i64
  %139 = getelementptr inbounds %struct._extensionInfo, ptr %136, i64 %138
  %140 = getelementptr inbounds nuw %struct._extensionInfo, ptr %139, i32 0, i32 3
  store ptr %135, ptr %140, align 8
  %141 = load ptr, ptr %6, align 8
  %142 = load i32, ptr %8, align 4
  %143 = load i32, ptr %17, align 4
  %144 = call ptr @PQgetvalue(ptr noundef %141, i32 noundef %142, i32 noundef %143)
  %145 = call ptr @pg_strdup(ptr noundef %144)
  %146 = load ptr, ptr %10, align 8
  %147 = load i32, ptr %8, align 4
  %148 = sext i32 %147 to i64
  %149 = getelementptr inbounds %struct._extensionInfo, ptr %146, i64 %148
  %150 = getelementptr inbounds nuw %struct._extensionInfo, ptr %149, i32 0, i32 4
  store ptr %145, ptr %150, align 8
  %151 = load ptr, ptr %6, align 8
  %152 = load i32, ptr %8, align 4
  %153 = load i32, ptr %18, align 4
  %154 = call ptr @PQgetvalue(ptr noundef %151, i32 noundef %152, i32 noundef %153)
  %155 = call ptr @pg_strdup(ptr noundef %154)
  %156 = load ptr, ptr %10, align 8
  %157 = load i32, ptr %8, align 4
  %158 = sext i32 %157 to i64
  %159 = getelementptr inbounds %struct._extensionInfo, ptr %156, i64 %158
  %160 = getelementptr inbounds nuw %struct._extensionInfo, ptr %159, i32 0, i32 5
  store ptr %155, ptr %160, align 8
  %161 = load ptr, ptr %10, align 8
  %162 = load i32, ptr %8, align 4
  %163 = sext i32 %162 to i64
  %164 = getelementptr inbounds %struct._extensionInfo, ptr %161, i64 %163
  %165 = load ptr, ptr %5, align 8
  call void @selectDumpableExtension(ptr noundef %164, ptr noundef %165)
  br label %166

166:                                              ; preds = %59
  %167 = load i32, ptr %8, align 4
  %168 = add i32 %167, 1
  store i32 %168, ptr %8, align 4
  br label %55, !llvm.loop !46

169:                                              ; preds = %55
  br label %170

170:                                              ; preds = %169, %33
  %171 = load ptr, ptr %6, align 8
  call void @PQclear(ptr noundef %171)
  %172 = load ptr, ptr %9, align 8
  call void @destroyPQExpBuffer(ptr noundef %172)
  %173 = load i32, ptr %7, align 4
  %174 = load ptr, ptr %4, align 8
  store i32 %173, ptr %174, align 4
  %175 = load ptr, ptr %10, align 8
  call void @llvm.lifetime.end.p0(i64 4, ptr %18) #10
  call void @llvm.lifetime.end.p0(i64 4, ptr %17) #10
  call void @llvm.lifetime.end.p0(i64 4, ptr %16) #10
  call void @llvm.lifetime.end.p0(i64 4, ptr %15) #10
  call void @llvm.lifetime.end.p0(i64 4, ptr %14) #10
  call void @llvm.lifetime.end.p0(i64 4, ptr %13) #10
  call void @llvm.lifetime.end.p0(i64 4, ptr %12) #10
  call void @llvm.lifetime.end.p0(i64 4, ptr %11) #10
  call void @llvm.lifetime.end.p0(i64 8, ptr %10) #10
  call void @llvm.lifetime.end.p0(i64 8, ptr %9) #10
  call void @llvm.lifetime.end.p0(i64 4, ptr %8) #10
  call void @llvm.lifetime.end.p0(i64 4, ptr %7) #10
  call void @llvm.lifetime.end.p0(i64 8, ptr %6) #10
  call void @llvm.lifetime.end.p0(i64 8, ptr %5) #10
  ret ptr %175
}