; Function Attrs: nounwind uwtable
define dso_local ptr @getExtensions(ptr noundef %0, ptr noundef writeonly captures(none) %1) local_unnamed_addr #5 {
  %3 = load ptr, ptr %0, align 8
  %4 = tail call ptr @createPQExpBuffer() #14
  tail call void @appendPQExpBufferStr(ptr noundef %4, ptr noundef nonnull @.str.194) #14
  %5 = load ptr, ptr %4, align 8
  %6 = tail call ptr @ExecuteSqlQuery(ptr noundef nonnull %0, ptr noundef %5, i32 noundef 2) #14
  %7 = tail call i32 @PQntuples(ptr noundef %6) #14
  %8 = icmp eq i32 %7, 0
  br i1 %8, label %.loopexit, label %9

9:                                                ; preds = %2
  %10 = sext i32 %7 to i64
  %11 = mul nsw i64 %10, 104
  %12 = tail call ptr @pg_malloc(i64 noundef %11) #14
  %13 = tail call i32 @PQfnumber(ptr noundef %6, ptr noundef nonnull @.str.107) #14
  %14 = tail call i32 @PQfnumber(ptr noundef %6, ptr noundef nonnull @.str.106) #14
  %15 = tail call i32 @PQfnumber(ptr noundef %6, ptr noundef nonnull @.str.195) #14
  %16 = tail call i32 @PQfnumber(ptr noundef %6, ptr noundef nonnull @.str.187) #14
  %17 = tail call i32 @PQfnumber(ptr noundef %6, ptr noundef nonnull @.str.196) #14
  %18 = tail call i32 @PQfnumber(ptr noundef %6, ptr noundef nonnull @.str.197) #14
  %19 = tail call i32 @PQfnumber(ptr noundef %6, ptr noundef nonnull @.str.198) #14
  %20 = tail call i32 @PQfnumber(ptr noundef %6, ptr noundef nonnull @.str.199) #14
  %21 = icmp sgt i32 %7, 0
  br i1 %21, label %.lr.ph, label %.loopexit

.lr.ph:                                           ; preds = %9
  %22 = getelementptr inbounds nuw i8, ptr %3, i64 140
  %wide.trip.count = zext nneg i32 %7 to i64
  br label %23

23:                                               ; preds = %.lr.ph, %selectDumpableExtension.exit
  %indvars.iv = phi i64 [ 0, %.lr.ph ], [ %indvars.iv.next, %selectDumpableExtension.exit ]
  %24 = getelementptr inbounds nuw %struct._extensionInfo, ptr %12, i64 %indvars.iv
  store i32 1, ptr %24, align 8
  %25 = trunc nuw nsw i64 %indvars.iv to i32
  %26 = tail call ptr @PQgetvalue(ptr noundef %6, i32 noundef %25, i32 noundef %13) #14
  %27 = tail call i64 @strtoul(ptr noundef captures(none) %26, ptr noundef null, i32 noundef 10) #14
  %28 = trunc i64 %27 to i32
  %29 = getelementptr inbounds nuw i8, ptr %24, i64 4
  store i32 %28, ptr %29, align 4
  %30 = tail call ptr @PQgetvalue(ptr noundef %6, i32 noundef %25, i32 noundef %14) #14
  %31 = tail call i64 @strtoul(ptr noundef captures(none) %30, ptr noundef null, i32 noundef 10) #14
  %32 = trunc i64 %31 to i32
  %33 = getelementptr inbounds nuw i8, ptr %24, i64 8
  store i32 %32, ptr %33, align 4
  tail call void @AssignDumpId(ptr noundef nonnull %24) #14
  %34 = tail call ptr @PQgetvalue(ptr noundef %6, i32 noundef %25, i32 noundef %15) #14
  %35 = tail call ptr @pg_strdup(ptr noundef %34) #14
  %36 = getelementptr inbounds nuw i8, ptr %24, i64 16
  store ptr %35, ptr %36, align 8
  %37 = tail call ptr @PQgetvalue(ptr noundef %6, i32 noundef %25, i32 noundef %16) #14
  %38 = tail call ptr @pg_strdup(ptr noundef %37) #14
  %39 = getelementptr inbounds nuw i8, ptr %24, i64 64
  store ptr %38, ptr %39, align 8
  %40 = tail call ptr @PQgetvalue(ptr noundef %6, i32 noundef %25, i32 noundef %17) #14
  %41 = load i8, ptr %40, align 1
  %42 = icmp eq i8 %41, 116
  %43 = getelementptr inbounds nuw i8, ptr %24, i64 72
  %44 = zext i1 %42 to i8
  store i8 %44, ptr %43, align 8
  %45 = tail call ptr @PQgetvalue(ptr noundef %6, i32 noundef %25, i32 noundef %18) #14
  %46 = tail call ptr @pg_strdup(ptr noundef %45) #14
  %47 = getelementptr inbounds nuw i8, ptr %24, i64 80
  store ptr %46, ptr %47, align 8
  %48 = tail call ptr @PQgetvalue(ptr noundef %6, i32 noundef %25, i32 noundef %19) #14
  %49 = tail call ptr @pg_strdup(ptr noundef %48) #14
  %50 = getelementptr inbounds nuw i8, ptr %24, i64 88
  store ptr %49, ptr %50, align 8
  %51 = tail call ptr @PQgetvalue(ptr noundef %6, i32 noundef %25, i32 noundef %20) #14
  %52 = tail call ptr @pg_strdup(ptr noundef %51) #14
  %53 = getelementptr inbounds nuw i8, ptr %24, i64 96
  store ptr %52, ptr %53, align 8
  %54 = load i32, ptr %33, align 4
  %.b.i = load i1, ptr @g_last_builtin_oid, align 4
  %55 = select i1 %.b.i, i32 16383, i32 0
  %.not.i = icmp ugt i32 %54, %55
  br i1 %.not.i, label %59, label %56

56:                                               ; preds = %23
  %57 = getelementptr inbounds nuw i8, ptr %24, i64 36
  store i32 16, ptr %57, align 4
  %58 = getelementptr inbounds nuw i8, ptr %24, i64 32
  store i32 16, ptr %58, align 8
  br label %selectDumpableExtension.exit

59:                                               ; preds = %23
  %60 = load ptr, ptr @extension_include_oids, align 8
  %.not13.i = icmp eq ptr %60, null
  br i1 %.not13.i, label %63, label %61

61:                                               ; preds = %59
  %62 = tail call zeroext i1 @simple_oid_list_member(ptr noundef nonnull @extension_include_oids, i32 noundef %54) #14
  br i1 %62, label %.select.unfold.i_crit_edge, label %.thread.i

.select.unfold.i_crit_edge:                       ; preds = %61
  %.pre = load i32, ptr %33, align 4
  br label %select.unfold.i

63:                                               ; preds = %59
  %64 = load i8, ptr %22, align 4, !range !7, !noundef !8
  %65 = trunc nuw i8 %64 to i1
  br i1 %65, label %select.unfold.i, label %.thread.i

.thread.i:                                        ; preds = %63, %61
  %66 = getelementptr inbounds nuw i8, ptr %24, i64 36
  store i32 0, ptr %66, align 4
  %67 = getelementptr inbounds nuw i8, ptr %24, i64 32
  store i32 0, ptr %67, align 8
  br label %selectDumpableExtension.exit

select.unfold.i:                                  ; preds = %.select.unfold.i_crit_edge, %63
  %68 = phi i32 [ %.pre, %.select.unfold.i_crit_edge ], [ %54, %63 ]
  %69 = getelementptr inbounds nuw i8, ptr %24, i64 36
  store i32 65535, ptr %69, align 4
  %70 = getelementptr inbounds nuw i8, ptr %24, i64 32
  store i32 65535, ptr %70, align 8
  %71 = tail call zeroext i1 @simple_oid_list_member(ptr noundef nonnull @extension_exclude_oids, i32 noundef %68) #14
  br i1 %71, label %72, label %selectDumpableExtension.exit

72:                                               ; preds = %select.unfold.i
  store i32 0, ptr %69, align 4
  store i32 0, ptr %70, align 8
  br label %selectDumpableExtension.exit

selectDumpableExtension.exit:                     ; preds = %56, %.thread.i, %select.unfold.i, %72
  %indvars.iv.next = add nuw nsw i64 %indvars.iv, 1
  %exitcond.not = icmp eq i64 %indvars.iv.next, %wide.trip.count
  br i1 %exitcond.not, label %.loopexit, label %23, !llvm.loop !68

.loopexit:                                        ; preds = %selectDumpableExtension.exit, %9, %2
  %.069 = phi ptr [ null, %2 ], [ %12, %9 ], [ %12, %selectDumpableExtension.exit ]
  tail call void @PQclear(ptr noundef %6) #14
  tail call void @destroyPQExpBuffer(ptr noundef nonnull %4) #14
  store i32 %7, ptr %1, align 4
  ret ptr %.069
}